; ModuleID = 'source-C-CXX/35/254.c'
source_filename = "source-C-CXX/35/254.c"
target datalayout = "e-m:e-p270:32:32-p271:32:32-p272:64:64-i64:64-f80:128-n8:16:32:64-S128"
target triple = "x86_64-pc-linux-gnu"

@.str = private unnamed_addr constant [6 x i8] c"%s %s\00", align 1
@str = private unnamed_addr constant [3 x i8] c"NO\00", align 1
@str.3 = private unnamed_addr constant [4 x i8] c"YES\00", align 1

; Function Attrs: nofree nounwind sspstrong uwtable
define dso_local i32 @main() local_unnamed_addr #0 {
  %1 = alloca [100 x i8], align 16
  %2 = alloca [100 x i8], align 16
  %3 = getelementptr inbounds [100 x i8], [100 x i8]* %1, i64 0, i64 0
  call void @llvm.lifetime.start.p0i8(i64 100, i8* nonnull %3) #6
  call void @llvm.memset.p0i8.i64(i8* noundef nonnull align 16 dereferenceable(100) %3, i8 0, i64 100, i1 false)
  %4 = getelementptr inbounds [100 x i8], [100 x i8]* %2, i64 0, i64 0
  call void @llvm.lifetime.start.p0i8(i64 100, i8* nonnull %4) #6
  call void @llvm.memset.p0i8.i64(i8* noundef nonnull align 16 dereferenceable(100) %4, i8 0, i64 100, i1 false)
  %5 = call i32 (i8*, ...) @__isoc99_scanf(i8* getelementptr inbounds ([6 x i8], [6 x i8]* @.str, i64 0, i64 0), i8* nonnull %3, i8* nonnull %4)
  br label %6

6:                                                ; preds = %0, %26
  %7 = phi i64 [ 0, %0 ], [ %27, %26 ]
  %8 = call i64 @strlen(i8* noundef nonnull %3) #7
  %9 = icmp eq i64 %8, 1
  br i1 %9, label %26, label %10

10:                                               ; preds = %6
  %11 = load i8, i8* %3, align 16, !tbaa !5
  br label %12

12:                                               ; preds = %10, %21
  %13 = phi i8 [ %11, %10 ], [ %22, %21 ]
  %14 = phi i64 [ 0, %10 ], [ %15, %21 ]
  %15 = add nuw nsw i64 %14, 1
  %16 = getelementptr inbounds [100 x i8], [100 x i8]* %1, i64 0, i64 %15
  %17 = load i8, i8* %16, align 1, !tbaa !5
  %18 = icmp slt i8 %13, %17
  br i1 %18, label %19, label %21

19:                                               ; preds = %12
  %20 = getelementptr inbounds [100 x i8], [100 x i8]* %1, i64 0, i64 %14
  store i8 %17, i8* %20, align 1, !tbaa !5
  store i8 %13, i8* %16, align 1, !tbaa !5
  br label %21

21:                                               ; preds = %12, %19
  %22 = phi i8 [ %17, %12 ], [ %13, %19 ]
  %23 = call i64 @strlen(i8* noundef nonnull %3) #7
  %24 = add i64 %23, -1
  %25 = icmp ugt i64 %24, %15
  br i1 %25, label %12, label %26, !llvm.loop !8

26:                                               ; preds = %21, %6
  %27 = add nuw nsw i64 %7, 1
  %28 = call i64 @strlen(i8* noundef nonnull %3) #7
  %29 = icmp ugt i64 %28, %7
  br i1 %29, label %6, label %30, !llvm.loop !10

30:                                               ; preds = %26, %50
  %31 = phi i64 [ %51, %50 ], [ 0, %26 ]
  %32 = call i64 @strlen(i8* noundef nonnull %4) #7
  %33 = icmp eq i64 %32, 1
  br i1 %33, label %50, label %34

34:                                               ; preds = %30
  %35 = load i8, i8* %4, align 16, !tbaa !5
  br label %36

36:                                               ; preds = %34, %45
  %37 = phi i8 [ %35, %34 ], [ %46, %45 ]
  %38 = phi i64 [ 0, %34 ], [ %39, %45 ]
  %39 = add nuw nsw i64 %38, 1
  %40 = getelementptr inbounds [100 x i8], [100 x i8]* %2, i64 0, i64 %39
  %41 = load i8, i8* %40, align 1, !tbaa !5
  %42 = icmp slt i8 %37, %41
  br i1 %42, label %43, label %45

43:                                               ; preds = %36
  %44 = getelementptr inbounds [100 x i8], [100 x i8]* %2, i64 0, i64 %38
  store i8 %41, i8* %44, align 1, !tbaa !5
  store i8 %37, i8* %40, align 1, !tbaa !5
  br label %45

45:                                               ; preds = %36, %43
  %46 = phi i8 [ %41, %36 ], [ %37, %43 ]
  %47 = call i64 @strlen(i8* noundef nonnull %4) #7
  %48 = add i64 %47, -1
  %49 = icmp ugt i64 %48, %39
  br i1 %49, label %36, label %50, !llvm.loop !11

50:                                               ; preds = %45, %30
  %51 = add nuw nsw i64 %31, 1
  %52 = call i64 @strlen(i8* noundef nonnull %4) #7
  %53 = icmp ugt i64 %52, %31
  br i1 %53, label %30, label %54, !llvm.loop !12

54:                                               ; preds = %50
  %55 = call i32 @strcmp(i8* noundef nonnull %3, i8* noundef nonnull %4) #7
  %56 = icmp eq i32 %55, 0
  %57 = select i1 %56, i8* getelementptr inbounds ([4 x i8], [4 x i8]* @str.3, i64 0, i64 0), i8* getelementptr inbounds ([3 x i8], [3 x i8]* @str, i64 0, i64 0)
  %58 = call i32 @puts(i8* nonnull dereferenceable(1) %57)
  call void @llvm.lifetime.end.p0i8(i64 100, i8* nonnull %4) #6
  call void @llvm.lifetime.end.p0i8(i64 100, i8* nonnull %3) #6
  ret i32 0
}

; Function Attrs: argmemonly mustprogress nofree nosync nounwind willreturn
declare void @llvm.lifetime.start.p0i8(i64 immarg, i8* nocapture) #1

; Function Attrs: argmemonly mustprogress nofree nounwind willreturn writeonly
declare void @llvm.memset.p0i8.i64(i8* nocapture writeonly, i8, i64, i1 immarg) #2

; Function Attrs: nofree nounwind
declare noundef i32 @__isoc99_scanf(i8* nocapture noundef readonly, ...) local_unnamed_addr #3

; Function Attrs: argmemonly mustprogress nofree nounwind readonly willreturn
declare i64 @strlen(i8* nocapture) local_unnamed_addr #4

; Function Attrs: argmemonly mustprogress nofree nounwind readonly willreturn
declare i32 @strcmp(i8* nocapture, i8* nocapture) local_unnamed_addr #4

; Function Attrs: argmemonly mustprogress nofree nosync nounwind willreturn
declare void @llvm.lifetime.end.p0i8(i64 immarg, i8* nocapture) #1

; Function Attrs: nofree nounwind
declare noundef i32 @puts(i8* nocapture noundef readonly) local_unnamed_addr #5


!llvm.module.flags = !{!0, !1, !2, !3}
!llvm.ident = !{!4}

!0 = !{i32 1, !"wchar_size", i32 4}
!1 = !{i32 7, !"PIC Level", i32 2}
!2 = !{i32 7, !"PIE Level", i32 2}
!3 = !{i32 7, !"uwtable", i32 1}
!4 = !{!"clang version 13.0.0"}
!5 = !{!6, !6, i64 0}
!6 = !{!"omnipotent char", !7, i64 0}
!7 = !{!"Simple C/C++ TBAA"}
!8 = distinct !{!8, !9}
!9 = !{!"llvm.loop.mustprogress"}
!10 = distinct !{!10, !9}
!11 = distinct !{!11, !9}
!12 = distinct !{!12, !9}
